; Function Attrs: mustprogress nounwind uwtable
define hidden noundef ptr @_ZN6hermes2vm7HadesGC14allocLongLivedEj(ptr noundef nonnull align 8 dereferenceable(8152) %this, i32 noundef %sz) local_unnamed_addr #4 align 2 {
entry:
  %conv = zext i32 %sz to i64
  %totalAllocatedBytes_ = getelementptr inbounds i8, ptr %this, i64 16
  %0 = load i64, ptr %totalAllocatedBytes_, align 8
  %add = add i64 %0, %conv
  store i64 %add, ptr %totalAllocatedBytes_, align 8
  %oldGen_ = getelementptr inbounds i8, ptr %this, i64 872
  %call = tail call noundef ptr @_ZN6hermes2vm7HadesGC6OldGen5allocEj(ptr noundef nonnull align 8 dereferenceable(6672) %oldGen_, i32 noundef %sz)
  ret ptr %call
}